; Function Attrs: mustprogress nofree norecurse nosync nounwind willreturn memory(read, inaccessiblemem: none) uwtable
define hidden noundef zeroext i1 @_ZNK3sls12bv_valuation12is_power_of2ERKNS_5bvectE(ptr noundef nonnull readonly align 8 captures(none) dereferenceable(184) %0, ptr noundef nonnull readonly align 8 captures(none) dereferenceable(20) %1) local_unnamed_addr #8 align 2 {
  %3 = getelementptr inbounds nuw i8, ptr %0, i64 156
  %4 = load i32, ptr %3, align 4, !tbaa !68
  %.not = icmp eq i32 %4, 0
  br i1 %.not, label %._crit_edge, label %.lr.ph

.lr.ph:                                           ; preds = %2
  %5 = load ptr, ptr %1, align 8, !tbaa !14
  %wide.trip.count = zext i32 %4 to i64
  br label %7

._crit_edge.loopexit:                             ; preds = %7
  %6 = icmp eq i32 %11, 1
  br label %._crit_edge

._crit_edge:                                      ; preds = %._crit_edge.loopexit, %2
  %.06.lcssa = phi i1 [ false, %2 ], [ %6, %._crit_edge.loopexit ]
  ret i1 %.06.lcssa

7:                                                ; preds = %.lr.ph, %7
  %indvars.iv = phi i64 [ 0, %.lr.ph ], [ %indvars.iv.next, %7 ]
  %.067 = phi i32 [ 0, %.lr.ph ], [ %11, %7 ]
  %8 = getelementptr inbounds nuw i32, ptr %5, i64 %indvars.iv
  %9 = load i32, ptr %8, align 4, !tbaa !15
  %10 = tail call noundef range(i32 0, 33) i32 @llvm.ctpop.i32(i32 %9)
  %11 = add i32 %10, %.067
  %indvars.iv.next = add nuw nsw i64 %indvars.iv, 1
  %exitcond.not = icmp eq i64 %indvars.iv.next, %wide.trip.count
  br i1 %exitcond.not, label %._crit_edge.loopexit, label %7, !llvm.loop !164
}